; Function Attrs: mustprogress uwtable
define void @ureldatefmt_closeResult_77(ptr noundef %0) local_unnamed_addr #1 {
  %2 = icmp eq ptr %0, null
  br i1 %2, label %_ZN6icu_7713IcuCApiHelperI26UFormattedRelativeDateTimeNS_30UFormattedRelativeDateTimeImplELi1179796564EE8validateEPS1_R10UErrorCode.exit.thread, label %3

3:                                                ; preds = %1
  %4 = getelementptr inbounds nuw i8, ptr %0, i64 16
  %5 = load i32, ptr %4, align 4, !tbaa !107
  %.not9.i.i = icmp eq i32 %5, 1179796564
  br i1 %.not9.i.i, label %_ZN6icu_7713IcuCApiHelperI26UFormattedRelativeDateTimeNS_30UFormattedRelativeDateTimeImplELi1179796564EE8validateEPS1_R10UErrorCode.exit, label %_ZN6icu_7713IcuCApiHelperI26UFormattedRelativeDateTimeNS_30UFormattedRelativeDateTimeImplELi1179796564EE8validateEPS1_R10UErrorCode.exit.thread

_ZN6icu_7713IcuCApiHelperI26UFormattedRelativeDateTimeNS_30UFormattedRelativeDateTimeImplELi1179796564EE8validateEPS1_R10UErrorCode.exit: ; preds = %3
  tail call void @_ZN6icu_7730UFormattedRelativeDateTimeImplD1Ev(ptr noundef nonnull align 8 dereferenceable(48) %0) #20
  tail call void @_ZN6icu_777UMemorydlEPv(ptr noundef nonnull %0) #20
  br label %_ZN6icu_7713IcuCApiHelperI26UFormattedRelativeDateTimeNS_30UFormattedRelativeDateTimeImplELi1179796564EE8validateEPS1_R10UErrorCode.exit.thread

_ZN6icu_7713IcuCApiHelperI26UFormattedRelativeDateTimeNS_30UFormattedRelativeDateTimeImplELi1179796564EE8validateEPS1_R10UErrorCode.exit.thread: ; preds = %3, %1, %_ZN6icu_7713IcuCApiHelperI26UFormattedRelativeDateTimeNS_30UFormattedRelativeDateTimeImplELi1179796564EE8validateEPS1_R10UErrorCode.exit
  ret void
}